; Function Attrs: mustprogress nounwind uwtable
define hidden void @_ZN14PhaseIdealLoop12dominated_byEP10IfProjNodeP6IfNodebb(ptr noundef nonnull align 8 dereferenceable(237) %0, ptr noundef %1, ptr noundef %2, i1 noundef zeroext %3, i1 noundef zeroext %4) local_unnamed_addr #0 align 2 {
  %6 = load ptr, ptr %1, align 8
  %7 = load ptr, ptr %6, align 8
  %8 = tail call noundef i32 %7(ptr noundef nonnull align 8 dereferenceable(57) %1) #9
  %9 = icmp eq i32 %8, 180
  %. = select i1 %9, i32 179, i32 180
  %.0 = select i1 %3, i32 %., i32 %8
  %10 = getelementptr inbounds i8, ptr %0, i64 56
  %11 = load ptr, ptr %10, align 8
  %12 = icmp eq i32 %.0, 180
  %13 = load ptr, ptr @_ZN7TypeInt3ONEE, align 8
  %14 = load ptr, ptr @_ZN7TypeInt4ZEROE, align 8
  %15 = select i1 %12, ptr %13, ptr %14
  %16 = tail call noundef ptr @_ZN11PhaseValues7makeconEPK4Type(ptr noundef nonnull align 8 dereferenceable(2400) %11, ptr noundef %15) #9
  %17 = getelementptr inbounds i8, ptr %0, i64 16
  %18 = load ptr, ptr %17, align 8
  %19 = getelementptr inbounds i8, ptr %18, i64 736
  %20 = load ptr, ptr %19, align 8
  %21 = getelementptr inbounds i8, ptr %16, i64 40
  %22 = load i32, ptr %21, align 8
  %23 = getelementptr inbounds i8, ptr %0, i64 32
  %24 = load i32, ptr %23, align 8
  %.not.i.i = icmp ugt i32 %24, %22
  br i1 %.not.i.i, label %_ZN14PhaseIdealLoop8set_ctrlEP4NodeS1_.exit, label %25

25:                                               ; preds = %5
  %26 = getelementptr inbounds i8, ptr %0, i64 24
  tail call void @_ZN10Node_Array4growEj(ptr noundef nonnull align 8 dereferenceable(24) %26, i32 noundef %22) #9
  br label %_ZN14PhaseIdealLoop8set_ctrlEP4NodeS1_.exit

_ZN14PhaseIdealLoop8set_ctrlEP4NodeS1_.exit:      ; preds = %5, %25
  %27 = ptrtoint ptr %20 to i64
  %28 = add nsw i64 %27, 1
  %29 = inttoptr i64 %28 to ptr
  %30 = getelementptr inbounds i8, ptr %0, i64 40
  %31 = load ptr, ptr %30, align 8
  %32 = zext i32 %22 to i64
  %33 = getelementptr inbounds ptr, ptr %31, i64 %32
  store ptr %29, ptr %33, align 8
  %34 = load ptr, ptr %10, align 8
  %35 = getelementptr inbounds i8, ptr %34, i64 32
  %36 = load ptr, ptr %35, align 8
  %37 = tail call noundef zeroext i1 @_ZN8NodeHash11hash_deleteEPK4Node(ptr noundef nonnull align 8 dereferenceable(40) %36, ptr noundef %2) #9
  %38 = getelementptr inbounds i8, ptr %34, i64 2408
  %39 = load ptr, ptr %38, align 8
  %40 = getelementptr inbounds i8, ptr %39, i64 32
  %41 = getelementptr inbounds i8, ptr %2, i64 40
  %42 = load i32, ptr %41, align 8
  %43 = lshr i32 %42, 5
  %44 = load i32, ptr %40, align 8
  %.not.i.i.i.i = icmp ult i32 %43, %44
  br i1 %.not.i.i.i.i, label %_ZN9VectorSet8test_setEj.exit.i.i.i, label %45

45:                                               ; preds = %_ZN14PhaseIdealLoop8set_ctrlEP4NodeS1_.exit
  tail call void @_ZN9VectorSet4growEj(ptr noundef nonnull align 8 dereferenceable(32) %40, i32 noundef %43) #9
  br label %_ZN9VectorSet8test_setEj.exit.i.i.i

_ZN9VectorSet8test_setEj.exit.i.i.i:              ; preds = %45, %_ZN14PhaseIdealLoop8set_ctrlEP4NodeS1_.exit
  %46 = and i32 %42, 31
  %47 = shl nuw i32 1, %46
  %48 = getelementptr inbounds i8, ptr %39, i64 40
  %49 = load ptr, ptr %48, align 8
  %50 = zext nneg i32 %43 to i64
  %51 = getelementptr inbounds i32, ptr %49, i64 %50
  %52 = load i32, ptr %51, align 4
  %53 = or i32 %52, %47
  store i32 %53, ptr %51, align 4
  %54 = and i32 %52, %47
  %.not.i.i.i = icmp eq i32 %54, 0
  br i1 %.not.i.i.i, label %55, label %_ZN12PhaseIterGVN16replace_input_ofEP4NodejS1_.exit

55:                                               ; preds = %_ZN9VectorSet8test_setEj.exit.i.i.i
  %56 = getelementptr inbounds i8, ptr %39, i64 24
  %57 = load i32, ptr %56, align 8
  %58 = add i32 %57, 1
  store i32 %58, ptr %56, align 8
  %59 = getelementptr inbounds i8, ptr %39, i64 8
  %60 = load i32, ptr %59, align 8
  %.not.i.i.i.i.i = icmp ugt i32 %60, %57
  br i1 %.not.i.i.i.i.i, label %_ZN9Node_List4pushEP4Node.exit.i.i.i, label %61

61:                                               ; preds = %55
  tail call void @_ZN10Node_Array4growEj(ptr noundef nonnull align 8 dereferenceable(24) %39, i32 noundef %57) #9
  br label %_ZN9Node_List4pushEP4Node.exit.i.i.i

_ZN9Node_List4pushEP4Node.exit.i.i.i:             ; preds = %61, %55
  %62 = getelementptr inbounds i8, ptr %39, i64 16
  %63 = load ptr, ptr %62, align 8
  %64 = zext i32 %57 to i64
  %65 = getelementptr inbounds ptr, ptr %63, i64 %64
  store ptr %2, ptr %65, align 8
  br label %_ZN12PhaseIterGVN16replace_input_ofEP4NodejS1_.exit

_ZN12PhaseIterGVN16replace_input_ofEP4NodejS1_.exit: ; preds = %_ZN9VectorSet8test_setEj.exit.i.i.i, %_ZN9Node_List4pushEP4Node.exit.i.i.i
  tail call void @_ZN4Node9set_req_XEjPS_P12PhaseIterGVN(ptr noundef nonnull align 8 dereferenceable(52) %2, i32 noundef 1, ptr noundef nonnull %16, ptr noundef nonnull %34) #9
  %66 = getelementptr inbounds i8, ptr %2, i64 32
  %67 = load i32, ptr %66, align 8
  %.not = icmp eq i32 %67, 2
  br i1 %.not, label %68, label %73

68:                                               ; preds = %_ZN12PhaseIterGVN16replace_input_ofEP4NodejS1_.exit
  %69 = zext i1 %12 to i32
  %70 = tail call noundef ptr @_ZNK9MultiNode16proj_out_or_nullEj(ptr noundef nonnull align 8 dereferenceable(52) %2, i32 noundef %69) #9
  %71 = icmp eq ptr %70, null
  br i1 %71, label %73, label %72

72:                                               ; preds = %68
  tail call void @_ZN14PhaseIdealLoop32rewire_safe_outputs_to_dominatorEP4NodeS1_b(ptr noundef nonnull align 8 dereferenceable(237) %0, ptr noundef nonnull %70, ptr noundef nonnull %1, i1 noundef zeroext %4)
  br label %73

73:                                               ; preds = %68, %_ZN12PhaseIterGVN16replace_input_ofEP4NodejS1_.exit, %72
  ret void
}